; Function Attrs: nofree nounwind memory(write, argmem: read, inaccessiblemem: readwrite) uwtable
define noalias noundef ptr @Map_SuperTableCreate(ptr noundef readonly captures(none) %0) local_unnamed_addr #0 {
  %calloc13 = tail call dereferenceable_or_null(24) ptr @calloc(i64 1, i64 24)
  %2 = getelementptr inbounds nuw i8, ptr %0, i64 168
  %3 = load ptr, ptr %2, align 8
  %4 = getelementptr inbounds nuw i8, ptr %calloc13, i64 16
  store ptr %3, ptr %4, align 8
  br label %.loopexit.i

.loopexit.i:                                      ; preds = %.loopexit.i.backedge, %1
  %.012.i = phi i32 [ 19999, %1 ], [ %5, %.loopexit.i.backedge ]
  %5 = add i32 %.012.i, 1
  %6 = and i32 %.012.i, 1
  %.not.not.i = icmp eq i32 %6, 0
  br i1 %.not.not.i, label %.preheader.i, label %.loopexit.i.backedge

.loopexit.i.backedge:                             ; preds = %.lr.ph.i, %.loopexit.i
  br label %.loopexit.i, !llvm.loop !4

.preheader.i:                                     ; preds = %.loopexit.i
  %.not15.i = icmp ult i32 %5, 9
  br i1 %.not15.i, label %Abc_PrimeCudd.exit, label %.lr.ph.i

7:                                                ; preds = %.lr.ph.i
  %8 = add nuw nsw i32 %.01116.i, 2
  %9 = mul nuw nsw i32 %8, %8
  %.not.i = icmp ugt i32 %9, %5
  br i1 %.not.i, label %Abc_PrimeCudd.exit, label %.lr.ph.i, !llvm.loop !6

.lr.ph.i:                                         ; preds = %.preheader.i, %7
  %.01116.i = phi i32 [ %8, %7 ], [ 3, %.preheader.i ]
  %10 = urem i32 %5, %.01116.i
  %11 = icmp eq i32 %10, 0
  br i1 %11, label %.loopexit.i.backedge, label %7, !llvm.loop !4

Abc_PrimeCudd.exit:                               ; preds = %.preheader.i, %7
  %12 = getelementptr inbounds nuw i8, ptr %calloc13, i64 8
  store i32 %5, ptr %12, align 8
  %13 = sext i32 %5 to i64
  %14 = shl nsw i64 %13, 3
  %calloc = tail call ptr @calloc(i64 1, i64 %14)
  store ptr %calloc, ptr %calloc13, align 8
  ret ptr %calloc13
}